; Function Attrs: mustprogress uwtable
define dso_local noundef ptr @_ZN4Luau14TypeSimplifier8simplifyEPKNS_4TypeE(ptr noundef nonnull align 8 dereferenceable(60) %0, ptr noundef %1) local_unnamed_addr #2 align 2 personality ptr @__gxx_personality_v0 {
  %3 = alloca %"class.Luau::DenseHashSet.58", align 8
  call void @llvm.lifetime.start.p0(i64 40, ptr nonnull %3) #23
  call void @llvm.memset.p0.i64(ptr noundef nonnull align 8 dereferenceable(32) %3, i8 0, i64 32, i1 false)
  %4 = invoke noundef ptr @_ZN4Luau14TypeSimplifier8simplifyEPKNS_4TypeERNS_12DenseHashSetIS3_NS_16DenseHashPointerESt8equal_toIS3_EEE(ptr noundef nonnull align 8 dereferenceable(60) %0, ptr noundef %1, ptr noundef nonnull align 8 dereferenceable(40) %3)
          to label %5 unwind label %8

5:                                                ; preds = %2
  %6 = load ptr, ptr %3, align 8, !tbaa !181
  %.not.i.i = icmp eq ptr %6, null
  br i1 %.not.i.i, label %_ZN4Luau12DenseHashSetIPKNS_4TypeENS_16DenseHashPointerESt8equal_toIS3_EED2Ev.exit, label %7

7:                                                ; preds = %5
  call void @_ZdlPv(ptr noundef nonnull %6) #23
  br label %_ZN4Luau12DenseHashSetIPKNS_4TypeENS_16DenseHashPointerESt8equal_toIS3_EED2Ev.exit

_ZN4Luau12DenseHashSetIPKNS_4TypeENS_16DenseHashPointerESt8equal_toIS3_EED2Ev.exit: ; preds = %5, %7
  call void @llvm.lifetime.end.p0(i64 40, ptr nonnull %3) #23
  ret ptr %4

8:                                                ; preds = %2
  %9 = landingpad { ptr, i32 }
          cleanup
  %10 = load ptr, ptr %3, align 8, !tbaa !181
  %.not.i.i3 = icmp eq ptr %10, null
  br i1 %.not.i.i3, label %_ZN4Luau12DenseHashSetIPKNS_4TypeENS_16DenseHashPointerESt8equal_toIS3_EED2Ev.exit4, label %11

11:                                               ; preds = %8
  call void @_ZdlPv(ptr noundef nonnull %10) #23
  br label %_ZN4Luau12DenseHashSetIPKNS_4TypeENS_16DenseHashPointerESt8equal_toIS3_EED2Ev.exit4

_ZN4Luau12DenseHashSetIPKNS_4TypeENS_16DenseHashPointerESt8equal_toIS3_EED2Ev.exit4: ; preds = %8, %11
  call void @llvm.lifetime.end.p0(i64 40, ptr nonnull %3) #23
  resume { ptr, i32 } %9
}